target datalayout = "e-m:e-p270:32:32-p271:32:32-p272:64:64-i64:64-i128:128-f80:128-n8:16:32:64-S128"
target triple = "x86_64-pc-linux-gnu"

%struct.Amap_Gat_t_ = type { ptr, ptr, ptr, ptr, double, ptr, ptr, i32, [0 x %struct.Amap_Pin_t_] }
%struct.Amap_Pin_t_ = type { ptr, i32, double, double, double, double, double, double, double }

; Function Attrs: nounwind uwtable
define i32 @Amap_LibCompareGatesByArea(ptr noundef %0, ptr noundef %1) #0 {
  %3 = alloca i32, align 4
  %4 = alloca ptr, align 8
  %5 = alloca ptr, align 8
  %6 = alloca double, align 8
  store ptr %0, ptr %4, align 8
  store ptr %1, ptr %5, align 8
  %7 = load ptr, ptr %4, align 8
  %8 = load ptr, ptr %7, align 8
  %9 = getelementptr inbounds %struct.Amap_Gat_t_, ptr %8, i32 0, i32 4
  %10 = load double, ptr %9, align 8
  %11 = load ptr, ptr %5, align 8
  %12 = load ptr, ptr %11, align 8
  %13 = getelementptr inbounds %struct.Amap_Gat_t_, ptr %12, i32 0, i32 4
  %14 = load double, ptr %13, align 8
  %15 = fsub double %10, %14
  store double %15, ptr %6, align 8
  %16 = load double, ptr %6, align 8
  %17 = fcmp olt double %16, 0.000000e+00
  br i1 %17, label %18, label %19

18:                                               ; preds = %2
  store i32 -1, ptr %3, align 4
  br label %24

19:                                               ; preds = %2
  %20 = load double, ptr %6, align 8
  %21 = fcmp ogt double %20, 0.000000e+00
  br i1 %21, label %22, label %23

22:                                               ; preds = %19
  store i32 1, ptr %3, align 4
  br label %24

23:                                               ; preds = %19
  store i32 0, ptr %3, align 4
  br label %24

24:                                               ; preds = %23, %22, %18
  %25 = load i32, ptr %3, align 4
  ret i32 %25
}