; Function Attrs: mustprogress nofree norecurse nosync nounwind willreturn memory(read, inaccessiblemem: none) uwtable
define range(i32 -1, 2) i32 @Amap_LibCompareGatesByArea(ptr noundef readonly captures(none) %0, ptr noundef readonly captures(none) %1) #8 {
  %3 = load ptr, ptr %0, align 8
  %4 = getelementptr inbounds nuw i8, ptr %3, i64 32
  %5 = load double, ptr %4, align 8
  %6 = load ptr, ptr %1, align 8
  %7 = getelementptr inbounds nuw i8, ptr %6, i64 32
  %8 = load double, ptr %7, align 8
  %9 = fsub double %5, %8
  %10 = fcmp olt double %9, 0.000000e+00
  %11 = fcmp ogt double %9, 0.000000e+00
  %. = zext i1 %11 to i32
  %.0 = select i1 %10, i32 -1, i32 %.
  ret i32 %.0
}